target datalayout = "e-m:e-p270:32:32-p271:32:32-p272:64:64-i64:64-i128:128-f80:128-n8:16:32:64-S128"
target triple = "x86_64-pc-linux-gnu"

%"class.cv::Mat" = type { i32, i32, i32, i32, ptr, ptr, ptr, ptr, ptr, ptr, %"struct.cv::MatSize", %"struct.cv::MatStep" }
%"struct.cv::MatSize" = type { ptr }
%"struct.cv::MatStep" = type { ptr, [2 x i64] }
%"class.cv::_InputArray" = type { i32, ptr, %"class.cv::Size_" }
%"class.cv::Size_" = type { i32, i32 }

; Function Attrs: inlinehint mustprogress nounwind uwtable
define linkonce_odr hidden noundef i32 @_ZNK2cv3Mat4typeEv(ptr noundef nonnull align 8 dereferenceable(96) %0) #12 comdat align 2 {
  %2 = alloca ptr, align 8
  store ptr %0, ptr %2, align 8, !tbaa !137
  %3 = load ptr, ptr %2, align 8
  %4 = getelementptr inbounds nuw %"class.cv::Mat", ptr %3, i32 0, i32 0
  %5 = load i32, ptr %4, align 8, !tbaa !139
  %6 = and i32 %5, 4095
  ret i32 %6
}

; Function Attrs: inlinehint mustprogress nounwind uwtable
define linkonce_odr hidden noundef zeroext i1 @_ZNK2cv3Mat12isContinuousEv(ptr noundef nonnull align 8 dereferenceable(96) %0) #12 comdat align 2 {
  %2 = alloca ptr, align 8
  store ptr %0, ptr %2, align 8, !tbaa !137
  %3 = load ptr, ptr %2, align 8
  %4 = getelementptr inbounds nuw %"class.cv::Mat", ptr %3, i32 0, i32 0
  %5 = load i32, ptr %4, align 8, !tbaa !139
  %6 = and i32 %5, 16384
  %7 = icmp ne i32 %6, 0
  ret i1 %7
}

; Function Attrs: inlinehint mustprogress uwtable
define linkonce_odr hidden void @_ZNK2cv11_InputArray6getMatEi(ptr dead_on_unwind noalias writable sret(%"class.cv::Mat") align 8 %0, ptr noundef nonnull align 8 dereferenceable(24) %1, i32 noundef %2) #11 comdat align 2 {
  %4 = alloca ptr, align 8
  %5 = alloca ptr, align 8
  %6 = alloca i32, align 4
  store ptr %0, ptr %4, align 8
  store ptr %1, ptr %5, align 8, !tbaa !120
  store i32 %2, ptr %6, align 4, !tbaa !14
  %7 = load ptr, ptr %5, align 8
  %8 = call noundef i32 @_ZNK2cv11_InputArray4kindEv(ptr noundef nonnull align 8 dereferenceable(24) %7)
  %9 = icmp eq i32 %8, 65536
  br i1 %9, label %10, label %16

10:                                               ; preds = %3
  %11 = load i32, ptr %6, align 4, !tbaa !14
  %12 = icmp slt i32 %11, 0
  br i1 %12, label %13, label %16

13:                                               ; preds = %10
  %14 = getelementptr inbounds nuw %"class.cv::_InputArray", ptr %7, i32 0, i32 1
  %15 = load ptr, ptr %14, align 8, !tbaa !123
  call void @_ZN2cv3MatC1ERKS0_(ptr noundef nonnull align 8 dereferenceable(96) %0, ptr noundef nonnull align 8 dereferenceable(96) %15)
  br label %18

16:                                               ; preds = %10, %3
  %17 = load i32, ptr %6, align 4, !tbaa !14
  call void @_ZNK2cv11_InputArray7getMat_Ei(ptr dead_on_unwind writable sret(%"class.cv::Mat") align 8 %0, ptr noundef nonnull align 8 dereferenceable(24) %7, i32 noundef %17)
  br label %18

18:                                               ; preds = %16, %13
  ret void
}

; Function Attrs: mustprogress uwtable
define internal void @_ZN2cv5flannL18createIndicesDistsERKNS_12_OutputArrayES3_RNS_3MatES5_iiii(ptr noundef nonnull align 8 dereferenceable(24) %0, ptr noundef nonnull align 8 dereferenceable(24) %1, ptr noundef nonnull align 8 dereferenceable(96) %2, ptr noundef nonnull align 8 dereferenceable(96) %3, i32 noundef %4, i32 noundef %5, i32 noundef %6, i32 noundef %7) #7 personality ptr @__gxx_personality_v0 {
  %9 = alloca ptr, align 8
  %10 = alloca ptr, align 8
  %11 = alloca ptr, align 8
  %12 = alloca ptr, align 8
  %13 = alloca i32, align 4
  %14 = alloca i32, align 4
  %15 = alloca i32, align 4
  %16 = alloca i32, align 4
  %17 = alloca %"class.cv::Mat", align 8
  %18 = alloca ptr, align 8
  %19 = alloca i32, align 4
  %20 = alloca %"class.cv::Mat", align 8
  %21 = alloca %"class.cv::Mat", align 8
  %22 = alloca %"class.cv::Mat", align 8
  store ptr %0, ptr %9, align 8, !tbaa !153
  store ptr %1, ptr %10, align 8, !tbaa !153
  store ptr %2, ptr %11, align 8, !tbaa !137
  store ptr %3, ptr %12, align 8, !tbaa !137
  store i32 %4, ptr %13, align 4, !tbaa !14
  store i32 %5, ptr %14, align 4, !tbaa !14
  store i32 %6, ptr %15, align 4, !tbaa !14
  store i32 %7, ptr %16, align 4, !tbaa !14
  %23 = load ptr, ptr %9, align 8, !tbaa !153
  %24 = call noundef zeroext i1 @_ZNK2cv12_OutputArray6neededEv(ptr noundef nonnull align 8 dereferenceable(24) %23)
  br i1 %24, label %25, label %76

25:                                               ; preds = %8
  call void @llvm.lifetime.start.p0(i64 96, ptr %17) #3
  %26 = load ptr, ptr %9, align 8, !tbaa !153
  call void @_ZNK2cv11_InputArray6getMatEi(ptr dead_on_unwind writable sret(%"class.cv::Mat") align 8 %17, ptr noundef nonnull align 8 dereferenceable(24) %26, i32 noundef -1)
  %27 = load ptr, ptr %11, align 8, !tbaa !137
  %28 = invoke noundef nonnull align 8 dereferenceable(96) ptr @_ZN2cv3MataSEOS0_(ptr noundef nonnull align 8 dereferenceable(96) %27, ptr noundef nonnull align 8 dereferenceable(96) %17)
          to label %29 unwind label %59

29:                                               ; preds = %25
  call void @_ZN2cv3MatD1Ev(ptr noundef nonnull align 8 dereferenceable(96) %17) #3
  call void @llvm.lifetime.end.p0(i64 96, ptr %17) #3
  %30 = load ptr, ptr %11, align 8, !tbaa !137
  %31 = call noundef zeroext i1 @_ZNK2cv3Mat12isContinuousEv(ptr noundef nonnull align 8 dereferenceable(96) %30)
  br i1 %31, label %32, label %54

32:                                               ; preds = %29
  %33 = load ptr, ptr %11, align 8, !tbaa !137
  %34 = call noundef i32 @_ZNK2cv3Mat4typeEv(ptr noundef nonnull align 8 dereferenceable(96) %33)
  %35 = icmp ne i32 %34, 4
  br i1 %35, label %54, label %36

36:                                               ; preds = %32
  %37 = load ptr, ptr %11, align 8, !tbaa !137
  %38 = getelementptr inbounds nuw %"class.cv::Mat", ptr %37, i32 0, i32 2
  %39 = load i32, ptr %38, align 8, !tbaa !134
  %40 = load i32, ptr %13, align 4, !tbaa !14
  %41 = icmp ne i32 %39, %40
  br i1 %41, label %54, label %42

42:                                               ; preds = %36
  %43 = load ptr, ptr %11, align 8, !tbaa !137
  %44 = getelementptr inbounds nuw %"class.cv::Mat", ptr %43, i32 0, i32 3
  %45 = load i32, ptr %44, align 4, !tbaa !136
  %46 = load i32, ptr %14, align 4, !tbaa !14
  %47 = icmp slt i32 %45, %46
  br i1 %47, label %54, label %48

48:                                               ; preds = %42
  %49 = load ptr, ptr %11, align 8, !tbaa !137
  %50 = getelementptr inbounds nuw %"class.cv::Mat", ptr %49, i32 0, i32 3
  %51 = load i32, ptr %50, align 4, !tbaa !136
  %52 = load i32, ptr %15, align 4, !tbaa !14
  %53 = icmp sgt i32 %51, %52
  br i1 %53, label %54, label %75

54:                                               ; preds = %48, %42, %36, %32, %29
  %55 = load ptr, ptr %11, align 8, !tbaa !137
  %56 = call noundef zeroext i1 @_ZNK2cv3Mat12isContinuousEv(ptr noundef nonnull align 8 dereferenceable(96) %55)
  br i1 %56, label %63, label %57

57:                                               ; preds = %54
  %58 = load ptr, ptr %9, align 8, !tbaa !153
  call void @_ZNK2cv12_OutputArray7releaseEv(ptr noundef nonnull align 8 dereferenceable(24) %58)
  br label %63

59:                                               ; preds = %25
  %60 = landingpad { ptr, i32 }
          cleanup
  %61 = extractvalue { ptr, i32 } %60, 0
  store ptr %61, ptr %18, align 8
  %62 = extractvalue { ptr, i32 } %60, 1
  store i32 %62, ptr %19, align 4
  call void @_ZN2cv3MatD1Ev(ptr noundef nonnull align 8 dereferenceable(96) %17) #3
  call void @llvm.lifetime.end.p0(i64 96, ptr %17) #3
  br label %142

63:                                               ; preds = %57, %54
  %64 = load ptr, ptr %9, align 8, !tbaa !153
  %65 = load i32, ptr %13, align 4, !tbaa !14
  %66 = load i32, ptr %14, align 4, !tbaa !14
  call void @_ZNK2cv12_OutputArray6createEiiiibNS0_9DepthMaskE(ptr noundef nonnull align 8 dereferenceable(24) %64, i32 noundef %65, i32 noundef %66, i32 noundef 4, i32 noundef -1, i1 noundef zeroext false, i32 noundef 0)
  call void @llvm.lifetime.start.p0(i64 96, ptr %20) #3
  %67 = load ptr, ptr %9, align 8, !tbaa !153
  call void @_ZNK2cv11_InputArray6getMatEi(ptr dead_on_unwind writable sret(%"class.cv::Mat") align 8 %20, ptr noundef nonnull align 8 dereferenceable(24) %67, i32 noundef -1)
  %68 = load ptr, ptr %11, align 8, !tbaa !137
  %69 = invoke noundef nonnull align 8 dereferenceable(96) ptr @_ZN2cv3MataSEOS0_(ptr noundef nonnull align 8 dereferenceable(96) %68, ptr noundef nonnull align 8 dereferenceable(96) %20)
          to label %70 unwind label %71

70:                                               ; preds = %63
  call void @_ZN2cv3MatD1Ev(ptr noundef nonnull align 8 dereferenceable(96) %20) #3
  call void @llvm.lifetime.end.p0(i64 96, ptr %20) #3
  br label %75

71:                                               ; preds = %63
  %72 = landingpad { ptr, i32 }
          cleanup
  %73 = extractvalue { ptr, i32 } %72, 0
  store ptr %73, ptr %18, align 8
  %74 = extractvalue { ptr, i32 } %72, 1
  store i32 %74, ptr %19, align 4
  call void @_ZN2cv3MatD1Ev(ptr noundef nonnull align 8 dereferenceable(96) %20) #3
  call void @llvm.lifetime.end.p0(i64 96, ptr %20) #3
  br label %142

75:                                               ; preds = %70, %48
  br label %80

76:                                               ; preds = %8
  %77 = load ptr, ptr %11, align 8, !tbaa !137
  %78 = load i32, ptr %13, align 4, !tbaa !14
  %79 = load i32, ptr %14, align 4, !tbaa !14
  call void @_ZN2cv3Mat6createEiii(ptr noundef nonnull align 8 dereferenceable(96) %77, i32 noundef %78, i32 noundef %79, i32 noundef 4)
  br label %80

80:                                               ; preds = %76, %75
  %81 = load ptr, ptr %10, align 8, !tbaa !153
  %82 = call noundef zeroext i1 @_ZNK2cv12_OutputArray6neededEv(ptr noundef nonnull align 8 dereferenceable(24) %81)
  br i1 %82, label %83, label %136

83:                                               ; preds = %80
  call void @llvm.lifetime.start.p0(i64 96, ptr %21) #3
  %84 = load ptr, ptr %10, align 8, !tbaa !153
  call void @_ZNK2cv11_InputArray6getMatEi(ptr dead_on_unwind writable sret(%"class.cv::Mat") align 8 %21, ptr noundef nonnull align 8 dereferenceable(24) %84, i32 noundef -1)
  %85 = load ptr, ptr %12, align 8, !tbaa !137
  %86 = invoke noundef nonnull align 8 dereferenceable(96) ptr @_ZN2cv3MataSEOS0_(ptr noundef nonnull align 8 dereferenceable(96) %85, ptr noundef nonnull align 8 dereferenceable(96) %21)
          to label %87 unwind label %118

87:                                               ; preds = %83
  call void @_ZN2cv3MatD1Ev(ptr noundef nonnull align 8 dereferenceable(96) %21) #3
  call void @llvm.lifetime.end.p0(i64 96, ptr %21) #3
  %88 = load ptr, ptr %12, align 8, !tbaa !137
  %89 = call noundef zeroext i1 @_ZNK2cv3Mat12isContinuousEv(ptr noundef nonnull align 8 dereferenceable(96) %88)
  br i1 %89, label %90, label %113

90:                                               ; preds = %87
  %91 = load ptr, ptr %12, align 8, !tbaa !137
  %92 = call noundef i32 @_ZNK2cv3Mat4typeEv(ptr noundef nonnull align 8 dereferenceable(96) %91)
  %93 = load i32, ptr %16, align 4, !tbaa !14
  %94 = icmp ne i32 %92, %93
  br i1 %94, label %113, label %95

95:                                               ; preds = %90
  %96 = load ptr, ptr %12, align 8, !tbaa !137
  %97 = getelementptr inbounds nuw %"class.cv::Mat", ptr %96, i32 0, i32 2
  %98 = load i32, ptr %97, align 8, !tbaa !134
  %99 = load i32, ptr %13, align 4, !tbaa !14
  %100 = icmp ne i32 %98, %99
  br i1 %100, label %113, label %101

101:                                              ; preds = %95
  %102 = load ptr, ptr %12, align 8, !tbaa !137
  %103 = getelementptr inbounds nuw %"class.cv::Mat", ptr %102, i32 0, i32 3
  %104 = load i32, ptr %103, align 4, !tbaa !136
  %105 = load i32, ptr %14, align 4, !tbaa !14
  %106 = icmp slt i32 %104, %105
  br i1 %106, label %113, label %107

107:                                              ; preds = %101
  %108 = load ptr, ptr %12, align 8, !tbaa !137
  %109 = getelementptr inbounds nuw %"class.cv::Mat", ptr %108, i32 0, i32 3
  %110 = load i32, ptr %109, align 4, !tbaa !136
  %111 = load i32, ptr %15, align 4, !tbaa !14
  %112 = icmp sgt i32 %110, %111
  br i1 %112, label %113, label %135

113:                                              ; preds = %107, %101, %95, %90, %87
  %114 = load ptr, ptr %10, align 8, !tbaa !153
  %115 = call noundef zeroext i1 @_ZNK2cv11_InputArray12isContinuousEi(ptr noundef nonnull align 8 dereferenceable(24) %114, i32 noundef -1)
  br i1 %115, label %122, label %116

116:                                              ; preds = %113
  %117 = load ptr, ptr %10, align 8, !tbaa !153
  call void @_ZNK2cv12_OutputArray7releaseEv(ptr noundef nonnull align 8 dereferenceable(24) %117)
  br label %122

118:                                              ; preds = %83
  %119 = landingpad { ptr, i32 }
          cleanup
  %120 = extractvalue { ptr, i32 } %119, 0
  store ptr %120, ptr %18, align 8
  %121 = extractvalue { ptr, i32 } %119, 1
  store i32 %121, ptr %19, align 4
  call void @_ZN2cv3MatD1Ev(ptr noundef nonnull align 8 dereferenceable(96) %21) #3
  call void @llvm.lifetime.end.p0(i64 96, ptr %21) #3
  br label %142

122:                                              ; preds = %116, %113
  %123 = load ptr, ptr %10, align 8, !tbaa !153
  %124 = load i32, ptr %13, align 4, !tbaa !14
  %125 = load i32, ptr %14, align 4, !tbaa !14
  %126 = load i32, ptr %16, align 4, !tbaa !14
  call void @_ZNK2cv12_OutputArray6createEiiiibNS0_9DepthMaskE(ptr noundef nonnull align 8 dereferenceable(24) %123, i32 noundef %124, i32 noundef %125, i32 noundef %126, i32 noundef -1, i1 noundef zeroext false, i32 noundef 0)
  call void @llvm.lifetime.start.p0(i64 96, ptr %22) #3
  %127 = load ptr, ptr %10, align 8, !tbaa !153
  call void @_ZNK2cv11_InputArray6getMatEi(ptr dead_on_unwind writable sret(%"class.cv::Mat") align 8 %22, ptr noundef nonnull align 8 dereferenceable(24) %127, i32 noundef -1)
  %128 = load ptr, ptr %12, align 8, !tbaa !137
  %129 = invoke noundef nonnull align 8 dereferenceable(96) ptr @_ZN2cv3MataSEOS0_(ptr noundef nonnull align 8 dereferenceable(96) %128, ptr noundef nonnull align 8 dereferenceable(96) %22)
          to label %130 unwind label %131

130:                                              ; preds = %122
  call void @_ZN2cv3MatD1Ev(ptr noundef nonnull align 8 dereferenceable(96) %22) #3
  call void @llvm.lifetime.end.p0(i64 96, ptr %22) #3
  br label %135

131:                                              ; preds = %122
  %132 = landingpad { ptr, i32 }
          cleanup
  %133 = extractvalue { ptr, i32 } %132, 0
  store ptr %133, ptr %18, align 8
  %134 = extractvalue { ptr, i32 } %132, 1
  store i32 %134, ptr %19, align 4
  call void @_ZN2cv3MatD1Ev(ptr noundef nonnull align 8 dereferenceable(96) %22) #3
  call void @llvm.lifetime.end.p0(i64 96, ptr %22) #3
  br label %142

135:                                              ; preds = %130, %107
  br label %141

136:                                              ; preds = %80
  %137 = load ptr, ptr %12, align 8, !tbaa !137
  %138 = load i32, ptr %13, align 4, !tbaa !14
  %139 = load i32, ptr %14, align 4, !tbaa !14
  %140 = load i32, ptr %16, align 4, !tbaa !14
  call void @_ZN2cv3Mat6createEiii(ptr noundef nonnull align 8 dereferenceable(96) %137, i32 noundef %138, i32 noundef %139, i32 noundef %140)
  br label %141

141:                                              ; preds = %136, %135
  ret void

142:                                              ; preds = %131, %118, %71, %59
  %143 = load ptr, ptr %18, align 8
  %144 = load i32, ptr %19, align 4
  %145 = insertvalue { ptr, i32 } poison, ptr %143, 0
  %146 = insertvalue { ptr, i32 } %145, i32 %144, 1
  resume { ptr, i32 } %146
}