; Function Attrs: mustprogress uwtable
define internal fastcc void @_ZN2cv5flannL18createIndicesDistsERKNS_12_OutputArrayES3_RNS_3MatES5_iiii(ptr noundef nonnull align 8 dereferenceable(24) %0, ptr noundef nonnull align 8 dereferenceable(24) %1, ptr noundef nonnull align 8 dereferenceable(96) %2, ptr noundef nonnull align 8 dereferenceable(96) %3, i32 noundef %4, i32 noundef %5, i32 noundef %6, i32 noundef range(i32 4, 6) %7) unnamed_addr #7 personality ptr @__gxx_personality_v0 {
  %9 = alloca %"class.cv::Mat", align 8
  %10 = alloca %"class.cv::Mat", align 8
  %11 = alloca %"class.cv::Mat", align 8
  %12 = alloca %"class.cv::Mat", align 8
  %13 = tail call noundef zeroext i1 @_ZNK2cv12_OutputArray6neededEv(ptr noundef nonnull align 8 dereferenceable(24) %0)
  br i1 %13, label %14, label %47

14:                                               ; preds = %8
  call void @llvm.lifetime.start.p0(i64 96, ptr nonnull %9) #34
  %15 = tail call noundef i32 @_ZNK2cv11_InputArray4kindEv(ptr noundef nonnull align 8 dereferenceable(24) %0), !noalias !110
  %16 = icmp eq i32 %15, 65536
  br i1 %16, label %17, label %20

17:                                               ; preds = %14
  %18 = getelementptr inbounds nuw i8, ptr %0, i64 8
  %19 = load ptr, ptr %18, align 8, !tbaa !87, !noalias !110
  call void @_ZN2cv3MatC1ERKS0_(ptr noundef nonnull align 8 dereferenceable(96) %9, ptr noundef nonnull align 8 dereferenceable(96) %19)
  br label %_ZNK2cv11_InputArray6getMatEi.exit

20:                                               ; preds = %14
  call void @_ZNK2cv11_InputArray7getMat_Ei(ptr dead_on_unwind nonnull writable sret(%"class.cv::Mat") align 8 %9, ptr noundef nonnull align 8 dereferenceable(24) %0, i32 noundef -1)
  br label %_ZNK2cv11_InputArray6getMatEi.exit

_ZNK2cv11_InputArray6getMatEi.exit:               ; preds = %17, %20
  %21 = invoke noundef nonnull align 8 dereferenceable(96) ptr @_ZN2cv3MataSEOS0_(ptr noundef nonnull align 8 dereferenceable(96) %2, ptr noundef nonnull align 8 dereferenceable(96) %9)
          to label %22 unwind label %35

22:                                               ; preds = %_ZNK2cv11_InputArray6getMatEi.exit
  call void @_ZN2cv3MatD1Ev(ptr noundef nonnull align 8 dereferenceable(96) %9) #34
  call void @llvm.lifetime.end.p0(i64 96, ptr nonnull %9) #34
  %23 = load i32, ptr %2, align 8, !tbaa !93
  %24 = and i32 %23, 16384
  %.not61 = icmp eq i32 %24, 0
  br i1 %.not61, label %34, label %25

25:                                               ; preds = %22
  %26 = and i32 %23, 4095
  %.not = icmp eq i32 %26, 4
  %27 = getelementptr inbounds nuw i8, ptr %2, i64 8
  %28 = load i32, ptr %27, align 8
  %.not49 = icmp eq i32 %28, %4
  %or.cond = select i1 %.not, i1 %.not49, i1 false
  br i1 %or.cond, label %29, label %.thread

29:                                               ; preds = %25
  %30 = getelementptr inbounds nuw i8, ptr %2, i64 12
  %31 = load i32, ptr %30, align 4, !tbaa !104
  %32 = icmp slt i32 %31, %5
  %33 = icmp sgt i32 %31, %6
  %or.cond54 = or i1 %32, %33
  br i1 %or.cond54, label %.thread, label %48

34:                                               ; preds = %22
  call void @_ZNK2cv12_OutputArray7releaseEv(ptr noundef nonnull align 8 dereferenceable(24) %0)
  br label %.thread

35:                                               ; preds = %_ZNK2cv11_InputArray6getMatEi.exit
  %36 = landingpad { ptr, i32 }
          cleanup
  call void @_ZN2cv3MatD1Ev(ptr noundef nonnull align 8 dereferenceable(96) %9) #34
  call void @llvm.lifetime.end.p0(i64 96, ptr nonnull %9) #34
  br label %88

.thread:                                          ; preds = %25, %29, %34
  call void @_ZNK2cv12_OutputArray6createEiiiibNS0_9DepthMaskE(ptr noundef nonnull align 8 dereferenceable(24) %0, i32 noundef %4, i32 noundef %5, i32 noundef 4, i32 noundef -1, i1 noundef zeroext false, i32 noundef 0)
  call void @llvm.lifetime.start.p0(i64 96, ptr nonnull %10) #34
  %37 = call noundef i32 @_ZNK2cv11_InputArray4kindEv(ptr noundef nonnull align 8 dereferenceable(24) %0), !noalias !113
  %38 = icmp eq i32 %37, 65536
  br i1 %38, label %39, label %42

39:                                               ; preds = %.thread
  %40 = getelementptr inbounds nuw i8, ptr %0, i64 8
  %41 = load ptr, ptr %40, align 8, !tbaa !87, !noalias !113
  call void @_ZN2cv3MatC1ERKS0_(ptr noundef nonnull align 8 dereferenceable(96) %10, ptr noundef nonnull align 8 dereferenceable(96) %41)
  br label %_ZNK2cv11_InputArray6getMatEi.exit58

42:                                               ; preds = %.thread
  call void @_ZNK2cv11_InputArray7getMat_Ei(ptr dead_on_unwind nonnull writable sret(%"class.cv::Mat") align 8 %10, ptr noundef nonnull align 8 dereferenceable(24) %0, i32 noundef -1)
  br label %_ZNK2cv11_InputArray6getMatEi.exit58

_ZNK2cv11_InputArray6getMatEi.exit58:             ; preds = %39, %42
  %43 = invoke noundef nonnull align 8 dereferenceable(96) ptr @_ZN2cv3MataSEOS0_(ptr noundef nonnull align 8 dereferenceable(96) %2, ptr noundef nonnull align 8 dereferenceable(96) %10)
          to label %44 unwind label %45

44:                                               ; preds = %_ZNK2cv11_InputArray6getMatEi.exit58
  call void @_ZN2cv3MatD1Ev(ptr noundef nonnull align 8 dereferenceable(96) %10) #34
  call void @llvm.lifetime.end.p0(i64 96, ptr nonnull %10) #34
  br label %48

45:                                               ; preds = %_ZNK2cv11_InputArray6getMatEi.exit58
  %46 = landingpad { ptr, i32 }
          cleanup
  call void @_ZN2cv3MatD1Ev(ptr noundef nonnull align 8 dereferenceable(96) %10) #34
  call void @llvm.lifetime.end.p0(i64 96, ptr nonnull %10) #34
  br label %88

47:                                               ; preds = %8
  tail call void @_ZN2cv3Mat6createEiii(ptr noundef nonnull align 8 dereferenceable(96) %2, i32 noundef %4, i32 noundef %5, i32 noundef 4)
  br label %48

48:                                               ; preds = %29, %44, %47
  %49 = call noundef zeroext i1 @_ZNK2cv12_OutputArray6neededEv(ptr noundef nonnull align 8 dereferenceable(24) %1)
  br i1 %49, label %50, label %86

50:                                               ; preds = %48
  call void @llvm.lifetime.start.p0(i64 96, ptr nonnull %11) #34
  %51 = call noundef i32 @_ZNK2cv11_InputArray4kindEv(ptr noundef nonnull align 8 dereferenceable(24) %1), !noalias !116
  %52 = icmp eq i32 %51, 65536
  br i1 %52, label %53, label %56

53:                                               ; preds = %50
  %54 = getelementptr inbounds nuw i8, ptr %1, i64 8
  %55 = load ptr, ptr %54, align 8, !tbaa !87, !noalias !116
  call void @_ZN2cv3MatC1ERKS0_(ptr noundef nonnull align 8 dereferenceable(96) %11, ptr noundef nonnull align 8 dereferenceable(96) %55)
  br label %_ZNK2cv11_InputArray6getMatEi.exit59

56:                                               ; preds = %50
  call void @_ZNK2cv11_InputArray7getMat_Ei(ptr dead_on_unwind nonnull writable sret(%"class.cv::Mat") align 8 %11, ptr noundef nonnull align 8 dereferenceable(24) %1, i32 noundef -1)
  br label %_ZNK2cv11_InputArray6getMatEi.exit59

_ZNK2cv11_InputArray6getMatEi.exit59:             ; preds = %53, %56
  %57 = invoke noundef nonnull align 8 dereferenceable(96) ptr @_ZN2cv3MataSEOS0_(ptr noundef nonnull align 8 dereferenceable(96) %3, ptr noundef nonnull align 8 dereferenceable(96) %11)
          to label %58 unwind label %73

58:                                               ; preds = %_ZNK2cv11_InputArray6getMatEi.exit59
  call void @_ZN2cv3MatD1Ev(ptr noundef nonnull align 8 dereferenceable(96) %11) #34
  call void @llvm.lifetime.end.p0(i64 96, ptr nonnull %11) #34
  %59 = load i32, ptr %3, align 8, !tbaa !93
  %60 = and i32 %59, 16384
  %.not62 = icmp eq i32 %60, 0
  br i1 %.not62, label %70, label %61

61:                                               ; preds = %58
  %62 = and i32 %59, 4095
  %.not50 = icmp eq i32 %62, %7
  %63 = getelementptr inbounds nuw i8, ptr %3, i64 8
  %64 = load i32, ptr %63, align 8
  %.not51 = icmp eq i32 %64, %4
  %or.cond56 = select i1 %.not50, i1 %.not51, i1 false
  br i1 %or.cond56, label %65, label %70

65:                                               ; preds = %61
  %66 = getelementptr inbounds nuw i8, ptr %3, i64 12
  %67 = load i32, ptr %66, align 4, !tbaa !104
  %68 = icmp slt i32 %67, %5
  %69 = icmp sgt i32 %67, %6
  %or.cond57 = or i1 %68, %69
  br i1 %or.cond57, label %70, label %87

70:                                               ; preds = %65, %61, %58
  %71 = call noundef zeroext i1 @_ZNK2cv11_InputArray12isContinuousEi(ptr noundef nonnull align 8 dereferenceable(24) %1, i32 noundef -1)
  br i1 %71, label %75, label %72

72:                                               ; preds = %70
  call void @_ZNK2cv12_OutputArray7releaseEv(ptr noundef nonnull align 8 dereferenceable(24) %1)
  br label %75

73:                                               ; preds = %_ZNK2cv11_InputArray6getMatEi.exit59
  %74 = landingpad { ptr, i32 }
          cleanup
  call void @_ZN2cv3MatD1Ev(ptr noundef nonnull align 8 dereferenceable(96) %11) #34
  call void @llvm.lifetime.end.p0(i64 96, ptr nonnull %11) #34
  br label %88

75:                                               ; preds = %72, %70
  call void @_ZNK2cv12_OutputArray6createEiiiibNS0_9DepthMaskE(ptr noundef nonnull align 8 dereferenceable(24) %1, i32 noundef %4, i32 noundef %5, i32 noundef %7, i32 noundef -1, i1 noundef zeroext false, i32 noundef 0)
  call void @llvm.lifetime.start.p0(i64 96, ptr nonnull %12) #34
  %76 = call noundef i32 @_ZNK2cv11_InputArray4kindEv(ptr noundef nonnull align 8 dereferenceable(24) %1), !noalias !119
  %77 = icmp eq i32 %76, 65536
  br i1 %77, label %78, label %81

78:                                               ; preds = %75
  %79 = getelementptr inbounds nuw i8, ptr %1, i64 8
  %80 = load ptr, ptr %79, align 8, !tbaa !87, !noalias !119
  call void @_ZN2cv3MatC1ERKS0_(ptr noundef nonnull align 8 dereferenceable(96) %12, ptr noundef nonnull align 8 dereferenceable(96) %80)
  br label %_ZNK2cv11_InputArray6getMatEi.exit60

81:                                               ; preds = %75
  call void @_ZNK2cv11_InputArray7getMat_Ei(ptr dead_on_unwind nonnull writable sret(%"class.cv::Mat") align 8 %12, ptr noundef nonnull align 8 dereferenceable(24) %1, i32 noundef -1)
  br label %_ZNK2cv11_InputArray6getMatEi.exit60

_ZNK2cv11_InputArray6getMatEi.exit60:             ; preds = %78, %81
  %82 = invoke noundef nonnull align 8 dereferenceable(96) ptr @_ZN2cv3MataSEOS0_(ptr noundef nonnull align 8 dereferenceable(96) %3, ptr noundef nonnull align 8 dereferenceable(96) %12)
          to label %83 unwind label %84

83:                                               ; preds = %_ZNK2cv11_InputArray6getMatEi.exit60
  call void @_ZN2cv3MatD1Ev(ptr noundef nonnull align 8 dereferenceable(96) %12) #34
  call void @llvm.lifetime.end.p0(i64 96, ptr nonnull %12) #34
  br label %87

84:                                               ; preds = %_ZNK2cv11_InputArray6getMatEi.exit60
  %85 = landingpad { ptr, i32 }
          cleanup
  call void @_ZN2cv3MatD1Ev(ptr noundef nonnull align 8 dereferenceable(96) %12) #34
  call void @llvm.lifetime.end.p0(i64 96, ptr nonnull %12) #34
  br label %88

86:                                               ; preds = %48
  call void @_ZN2cv3Mat6createEiii(ptr noundef nonnull align 8 dereferenceable(96) %3, i32 noundef %4, i32 noundef %5, i32 noundef %7)
  br label %87

87:                                               ; preds = %65, %83, %86
  ret void

88:                                               ; preds = %84, %73, %45, %35
  %.pn = phi { ptr, i32 } [ %85, %84 ], [ %74, %73 ], [ %46, %45 ], [ %36, %35 ]
  resume { ptr, i32 } %.pn
}